target datalayout = "e-m:e-p270:32:32-p271:32:32-p272:64:64-i64:64-i128:128-f80:128-n8:16:32:64-S128"
target triple = "x86_64-unknown-linux-gnu"

; Function Attrs: fn_ret_thunk_extern nounwind null_pointer_is_valid
define dso_local i64 @trace_clock_x86_tsc() local_unnamed_addr #0 align 16 {
  %1 = tail call { i64, i64 } asm sideeffect "# ALT: oldinstr2\0A661:\0A\09rdtsc\0A662:\0A# ALT: padding2\0A.skip -((((6651f-6641f) ^ (((6651f-6641f) ^ (6652f-6642f)) & -(-((6651f-6641f) < (6652f-6642f))))) - (662b-661b)) > 0) * (((6651f-6641f) ^ (((6651f-6641f) ^ (6652f-6642f)) & -(-((6651f-6641f) < (6652f-6642f))))) - (662b-661b)), 0x90\0A663:\0A.pushsection .altinstructions,\22a\22\0A .long 661b - .\0A .long 6641f - .\0A .4byte (20*32+ 2)\0A .byte 663b-661b\0A .byte 6651f-6641f\0A .long 661b - .\0A .long 6642f - .\0A .4byte ( 1*32+27)\0A .byte 663b-661b\0A .byte 6652f-6642f\0A.popsection\0A.pushsection .altinstr_replacement, \22ax\22\0A# ALT: replacement 1\0A6641:\0A\09lfence; rdtsc\0A6651:\0A# ALT: replacement 2\0A6642:\0A\09rdtscp\0A6652:\0A.popsection\0A", "={ax},={dx},~{ecx},~{dirflag},~{fpsr},~{flags}"() #1, !srcloc !5
  %2 = extractvalue { i64, i64 } %1, 0
  %3 = extractvalue { i64, i64 } %1, 1
  %4 = shl i64 %3, 32
  %5 = or i64 %4, %2
  ret i64 %5
}


!llvm.module.flags = !{!0, !1, !2, !3, !4}

!0 = !{i32 1, !"wchar_size", i32 2}
!1 = !{i32 8, !"cf-protection-branch", i32 1}
!2 = !{i32 4, !"function_return_thunk_extern", i32 1}
!3 = !{i32 4, !"indirect_branch_cs_prefix", i32 1}
!4 = !{i32 4, !"SkipRaxSetup", i32 1}
!5 = !{i64 2148867656, i64 2148867689, i64 2148867695, i64 2148867711, i64 2148867730, i64 2148867761, i64 2148868713, i64 2148867287, i64 2148868719, i64 2148868767, i64 2148868831, i64 2148868895, i64 2148868952, i64 2148869159, i64 2148869207, i64 2148869271, i64 2148869335, i64 2148869392, i64 2148867405, i64 2148867430, i64 2148869599, i64 2148869728, i64 2148869660, i64 2148869742, i64 2148869756, i64 2148869878, i64 2148869817, i64 2148869892, i64 2148867564}
